; Function Attrs: nounwind uwtable
define zeroext range(i8 0, 2) i8 @l_Std_Internal_Rat_isInt(ptr noundef readonly captures(none) %0) local_unnamed_addr #0 {
  %2 = getelementptr inbounds nuw i8, ptr %0, i64 16
  %3 = load ptr, ptr %2, align 8, !tbaa !4
  %4 = ptrtoint ptr %3 to i64
  %5 = and i64 %4, 1
  %.not = icmp eq i64 %5, 0
  br i1 %.not, label %.critedge.i, label %6, !prof !14

6:                                                ; preds = %1
  %7 = icmp eq ptr %3, inttoptr (i64 3 to ptr)
  br label %lean_nat_eq.exit

.critedge.i:                                      ; preds = %1
  %8 = tail call zeroext i1 @lean_nat_big_eq(ptr noundef %3, ptr noundef nonnull inttoptr (i64 3 to ptr)) #5
  br label %lean_nat_eq.exit

lean_nat_eq.exit:                                 ; preds = %6, %.critedge.i
  %.0.i = phi i1 [ %7, %6 ], [ %8, %.critedge.i ]
  %9 = zext i1 %.0.i to i8
  ret i8 %9
}